target datalayout = "e-m:e-p270:32:32-p271:32:32-p272:64:64-i64:64-i128:128-f80:128-n8:16:32:64-S128"
target triple = "x86_64-pc-linux-gnu"

%"class.lean::object_ref" = type { ptr }
%struct.lean_object = type { i32, i32 }
%struct.lean_ctor_object = type { %struct.lean_object, [0 x ptr] }

; Function Attrs: inlinehint mustprogress nounwind uwtable
define internal noundef ptr @_ZL12lean_to_ctorP11lean_object(ptr noundef %0) #5 {
  %2 = alloca ptr, align 8
  store ptr %0, ptr %2, align 8, !tbaa !12
  %3 = load ptr, ptr %2, align 8, !tbaa !12
  ret ptr %3
}

; Function Attrs: inlinehint mustprogress uwtable
define linkonce_odr hidden noundef nonnull align 8 dereferenceable(8) ptr @_ZN4lean13cnstr_get_refEP11lean_objectj(ptr noundef %0, i32 noundef %1) #2 comdat {
  %3 = alloca ptr, align 8
  %4 = alloca i32, align 4
  store ptr %0, ptr %3, align 8, !tbaa !12
  store i32 %1, ptr %4, align 4, !tbaa !19
  %5 = load ptr, ptr %3, align 8, !tbaa !12
  %6 = call noundef ptr @_ZL12lean_to_ctorP11lean_object(ptr noundef %5)
  %7 = getelementptr inbounds nuw %struct.lean_ctor_object, ptr %6, i32 0, i32 1
  %8 = getelementptr inbounds [0 x ptr], ptr %7, i64 0, i64 0
  %9 = load i32, ptr %4, align 4, !tbaa !19
  %10 = zext i32 %9 to i64
  %11 = getelementptr inbounds nuw %"class.lean::object_ref", ptr %8, i64 %10
  ret ptr %11
}

; Function Attrs: inlinehint mustprogress uwtable
define linkonce_odr hidden noundef nonnull align 8 dereferenceable(8) ptr @_ZN4lean13cnstr_get_refERKNS_10object_refEj(ptr noundef nonnull align 8 dereferenceable(8) %0, i32 noundef %1) #2 comdat {
  %3 = alloca ptr, align 8
  %4 = alloca i32, align 4
  store ptr %0, ptr %3, align 8, !tbaa !8
  store i32 %1, ptr %4, align 4, !tbaa !19
  %5 = load ptr, ptr %3, align 8, !tbaa !8
  %6 = call noundef ptr @_ZNK4lean10object_ref3rawEv(ptr noundef nonnull align 8 dereferenceable(8) %5)
  %7 = load i32, ptr %4, align 4, !tbaa !19
  %8 = call noundef nonnull align 8 dereferenceable(8) ptr @_ZN4lean13cnstr_get_refEP11lean_objectj(ptr noundef %6, i32 noundef %7)
  ret ptr %8
}

; Function Attrs: alwaysinline mustprogress nounwind uwtable
define internal noundef zeroext i1 @_ZL14lean_is_scalarP11lean_object(ptr noundef %0) #10 {
  %2 = alloca ptr, align 8
  store ptr %0, ptr %2, align 8, !tbaa !12
  %3 = load ptr, ptr %2, align 8, !tbaa !12
  %4 = ptrtoint ptr %3 to i64
  %5 = and i64 %4, 1
  %6 = icmp eq i64 %5, 1
  ret i1 %6
}

; Function Attrs: mustprogress uwtable
define linkonce_odr hidden noundef nonnull align 8 dereferenceable(8) ptr @_ZN4lean4tailERKNS_8list_refINS_5levelEEE(ptr noundef nonnull align 8 dereferenceable(8) %0) #0 comdat {
  %2 = alloca ptr, align 8
  store ptr %0, ptr %2, align 8, !tbaa !34
  %3 = load ptr, ptr %2, align 8, !tbaa !34
  %4 = call noundef nonnull align 8 dereferenceable(8) ptr @_ZN4lean13cnstr_get_refERKNS_10object_refEj(ptr noundef nonnull align 8 dereferenceable(8) %3, i32 noundef 1)
  ret ptr %4
}

; Function Attrs: mustprogress uwtable
define linkonce_odr hidden noundef nonnull align 8 dereferenceable(8) ptr @_ZN4lean4headERKNS_8list_refINS_5levelEEE(ptr noundef nonnull align 8 dereferenceable(8) %0) #0 comdat {
  %2 = alloca ptr, align 8
  store ptr %0, ptr %2, align 8, !tbaa !34
  %3 = load ptr, ptr %2, align 8, !tbaa !34
  %4 = call noundef nonnull align 8 dereferenceable(8) ptr @_ZN4lean13cnstr_get_refERKNS_10object_refEj(ptr noundef nonnull align 8 dereferenceable(8) %3, i32 noundef 0)
  ret ptr %4
}

; Function Attrs: inlinehint mustprogress nounwind uwtable
define linkonce_odr hidden noundef zeroext i1 @_ZN4lean9is_scalarEP11lean_object(ptr noundef %0) #5 comdat {
  %2 = alloca ptr, align 8
  store ptr %0, ptr %2, align 8, !tbaa !12
  %3 = load ptr, ptr %2, align 8, !tbaa !12
  %4 = call noundef zeroext i1 @_ZL14lean_is_scalarP11lean_object(ptr noundef %3)
  ret i1 %4
}

; Function Attrs: mustprogress nounwind uwtable
define linkonce_odr hidden noundef ptr @_ZNK4lean10object_ref3rawEv(ptr noundef nonnull align 8 dereferenceable(8) %0) #6 comdat align 2 {
  %2 = alloca ptr, align 8
  store ptr %0, ptr %2, align 8, !tbaa !8
  %3 = load ptr, ptr %2, align 8
  %4 = getelementptr inbounds nuw %"class.lean::object_ref", ptr %3, i32 0, i32 0
  %5 = load ptr, ptr %4, align 8, !tbaa !10
  ret ptr %5
}

; Function Attrs: mustprogress uwtable
define linkonce_odr hidden noundef nonnull align 8 dereferenceable(8) ptr @_ZN4lean3cdrERKNS_8list_refINS_5levelEEE(ptr noundef nonnull align 8 dereferenceable(8) %0) #0 comdat {
  %2 = alloca ptr, align 8
  store ptr %0, ptr %2, align 8, !tbaa !34
  %3 = load ptr, ptr %2, align 8, !tbaa !34
  %4 = call noundef nonnull align 8 dereferenceable(8) ptr @_ZN4lean4tailERKNS_8list_refINS_5levelEEE(ptr noundef nonnull align 8 dereferenceable(8) %3)
  ret ptr %4
}

; Function Attrs: mustprogress uwtable
define linkonce_odr hidden noundef nonnull align 8 dereferenceable(8) ptr @_ZN4lean3carERKNS_8list_refINS_5levelEEE(ptr noundef nonnull align 8 dereferenceable(8) %0) #0 comdat {
  %2 = alloca ptr, align 8
  store ptr %0, ptr %2, align 8, !tbaa !34
  %3 = load ptr, ptr %2, align 8, !tbaa !34
  %4 = call noundef nonnull align 8 dereferenceable(8) ptr @_ZN4lean4headERKNS_8list_refINS_5levelEEE(ptr noundef nonnull align 8 dereferenceable(8) %3)
  ret ptr %4
}

; Function Attrs: mustprogress nounwind uwtable
define linkonce_odr hidden noundef zeroext i1 @_ZN4lean6is_nilERKNS_8list_refINS_5levelEEE(ptr noundef nonnull align 8 dereferenceable(8) %0) #6 comdat {
  %2 = alloca ptr, align 8
  store ptr %0, ptr %2, align 8, !tbaa !34
  %3 = load ptr, ptr %2, align 8, !tbaa !34
  %4 = call noundef ptr @_ZNK4lean10object_ref3rawEv(ptr noundef nonnull align 8 dereferenceable(8) %3)
  %5 = call noundef zeroext i1 @_ZN4lean9is_scalarEP11lean_object(ptr noundef %4)
  ret i1 %5
}

; Function Attrs: mustprogress uwtable
define hidden noundef zeroext i1 @_ZN4lean5is_ltERKNS_8list_refINS_5levelEEES4_b(ptr noundef nonnull align 8 dereferenceable(8) %0, ptr noundef nonnull align 8 dereferenceable(8) %1, i1 noundef zeroext %2) #0 {
  %4 = alloca i1, align 1
  %5 = alloca ptr, align 8
  %6 = alloca ptr, align 8
  %7 = alloca i8, align 1
  store ptr %0, ptr %5, align 8, !tbaa !34
  store ptr %1, ptr %6, align 8, !tbaa !34
  %8 = zext i1 %2 to i8
  store i8 %8, ptr %7, align 1, !tbaa !30
  %9 = load ptr, ptr %5, align 8, !tbaa !34
  %10 = call noundef zeroext i1 @_ZN4lean6is_nilERKNS_8list_refINS_5levelEEE(ptr noundef nonnull align 8 dereferenceable(8) %9)
  br i1 %10, label %11, label %15

11:                                               ; preds = %3
  %12 = load ptr, ptr %6, align 8, !tbaa !34
  %13 = call noundef zeroext i1 @_ZN4lean6is_nilERKNS_8list_refINS_5levelEEE(ptr noundef nonnull align 8 dereferenceable(8) %12)
  %14 = xor i1 %13, true
  store i1 %14, ptr %4, align 1
  br label %41

15:                                               ; preds = %3
  %16 = load ptr, ptr %6, align 8, !tbaa !34
  %17 = call noundef zeroext i1 @_ZN4lean6is_nilERKNS_8list_refINS_5levelEEE(ptr noundef nonnull align 8 dereferenceable(8) %16)
  br i1 %17, label %18, label %19

18:                                               ; preds = %15
  store i1 false, ptr %4, align 1
  br label %41

19:                                               ; preds = %15
  %20 = load ptr, ptr %5, align 8, !tbaa !34
  %21 = call noundef nonnull align 8 dereferenceable(8) ptr @_ZN4lean3carERKNS_8list_refINS_5levelEEE(ptr noundef nonnull align 8 dereferenceable(8) %20)
  %22 = load ptr, ptr %6, align 8, !tbaa !34
  %23 = call noundef nonnull align 8 dereferenceable(8) ptr @_ZN4lean3carERKNS_8list_refINS_5levelEEE(ptr noundef nonnull align 8 dereferenceable(8) %22)
  %24 = call noundef zeroext i1 @_ZN4leaneqERKNS_5levelES2_(ptr noundef nonnull align 8 dereferenceable(8) %21, ptr noundef nonnull align 8 dereferenceable(8) %23)
  br i1 %24, label %25, label %33

25:                                               ; preds = %19
  %26 = load ptr, ptr %5, align 8, !tbaa !34
  %27 = call noundef nonnull align 8 dereferenceable(8) ptr @_ZN4lean3cdrERKNS_8list_refINS_5levelEEE(ptr noundef nonnull align 8 dereferenceable(8) %26)
  %28 = load ptr, ptr %6, align 8, !tbaa !34
  %29 = call noundef nonnull align 8 dereferenceable(8) ptr @_ZN4lean3cdrERKNS_8list_refINS_5levelEEE(ptr noundef nonnull align 8 dereferenceable(8) %28)
  %30 = load i8, ptr %7, align 1, !tbaa !30, !range !32, !noundef !33
  %31 = trunc i8 %30 to i1
  %32 = call noundef zeroext i1 @_ZN4lean5is_ltERKNS_8list_refINS_5levelEEES4_b(ptr noundef nonnull align 8 dereferenceable(8) %27, ptr noundef nonnull align 8 dereferenceable(8) %29, i1 noundef zeroext %31)
  store i1 %32, ptr %4, align 1
  br label %41

33:                                               ; preds = %19
  %34 = load ptr, ptr %5, align 8, !tbaa !34
  %35 = call noundef nonnull align 8 dereferenceable(8) ptr @_ZN4lean3carERKNS_8list_refINS_5levelEEE(ptr noundef nonnull align 8 dereferenceable(8) %34)
  %36 = load ptr, ptr %6, align 8, !tbaa !34
  %37 = call noundef nonnull align 8 dereferenceable(8) ptr @_ZN4lean3carERKNS_8list_refINS_5levelEEE(ptr noundef nonnull align 8 dereferenceable(8) %36)
  %38 = load i8, ptr %7, align 1, !tbaa !30, !range !32, !noundef !33
  %39 = trunc i8 %38 to i1
  %40 = call noundef zeroext i1 @_ZN4lean5is_ltERKNS_5levelES2_b(ptr noundef nonnull align 8 dereferenceable(8) %35, ptr noundef nonnull align 8 dereferenceable(8) %37, i1 noundef zeroext %39)
  store i1 %40, ptr %4, align 1
  br label %41

41:                                               ; preds = %33, %25, %18, %11
  %42 = load i1, ptr %4, align 1
  ret i1 %42
}