; Function Attrs: mustprogress uwtable
define hidden noundef zeroext i1 @_ZN4lean5is_ltERKNS_8list_refINS_5levelEEES4_b(ptr noundef nonnull readonly align 8 captures(none) dereferenceable(8) %0, ptr noundef nonnull readonly align 8 captures(none) dereferenceable(8) %1, i1 noundef zeroext %2) local_unnamed_addr #0 {
  %4 = load ptr, ptr %0, align 8, !tbaa !3
  %5 = ptrtoint ptr %4 to i64
  %6 = and i64 %5, 1
  %.not19 = icmp eq i64 %6, 0
  br i1 %.not19, label %.lr.ph, label %tailrecurse._crit_edge

tailrecurse._crit_edge:                           ; preds = %tailrecurse, %3
  %.tr13.lcssa = phi ptr [ %1, %3 ], [ %21, %tailrecurse ]
  %7 = load ptr, ptr %.tr13.lcssa, align 8, !tbaa !3
  %8 = ptrtoint ptr %7 to i64
  %9 = and i64 %8, 1
  %.not12 = icmp eq i64 %9, 0
  br label %.loopexit

.lr.ph:                                           ; preds = %3, %tailrecurse
  %10 = phi ptr [ %22, %tailrecurse ], [ %4, %3 ]
  %.tr1321 = phi ptr [ %21, %tailrecurse ], [ %1, %3 ]
  %.tr20 = phi ptr [ %20, %tailrecurse ], [ %0, %3 ]
  %11 = load ptr, ptr %.tr1321, align 8, !tbaa !3
  %12 = ptrtoint ptr %11 to i64
  %13 = and i64 %12, 1
  %.not11 = icmp eq i64 %13, 0
  br i1 %.not11, label %14, label %.loopexit

14:                                               ; preds = %.lr.ph
  %15 = getelementptr inbounds nuw i8, ptr %10, i64 8
  %16 = getelementptr inbounds nuw i8, ptr %11, i64 8
  %17 = tail call noundef zeroext i1 @_ZN4leaneqERKNS_5levelES2_(ptr noundef nonnull align 8 dereferenceable(8) %15, ptr noundef nonnull align 8 dereferenceable(8) %16)
  %18 = load ptr, ptr %.tr20, align 8, !tbaa !3
  %19 = load ptr, ptr %.tr1321, align 8, !tbaa !3
  br i1 %17, label %tailrecurse, label %25

tailrecurse:                                      ; preds = %14
  %20 = getelementptr inbounds nuw i8, ptr %18, i64 16
  %21 = getelementptr inbounds nuw i8, ptr %19, i64 16
  %22 = load ptr, ptr %20, align 8, !tbaa !3
  %23 = ptrtoint ptr %22 to i64
  %24 = and i64 %23, 1
  %.not = icmp eq i64 %24, 0
  br i1 %.not, label %.lr.ph, label %tailrecurse._crit_edge

25:                                               ; preds = %14
  %26 = getelementptr inbounds nuw i8, ptr %18, i64 8
  %27 = getelementptr inbounds nuw i8, ptr %19, i64 8
  %28 = tail call noundef zeroext i1 @_ZN4lean5is_ltERKNS_5levelES2_b(ptr noundef nonnull align 8 dereferenceable(8) %26, ptr noundef nonnull align 8 dereferenceable(8) %27, i1 noundef zeroext %2)
  br label %.loopexit

.loopexit:                                        ; preds = %.lr.ph, %25, %tailrecurse._crit_edge
  %.0 = phi i1 [ %.not12, %tailrecurse._crit_edge ], [ %28, %25 ], [ false, %.lr.ph ]
  ret i1 %.0
}